target datalayout = "e-m:e-p270:32:32-p271:32:32-p272:64:64-i64:64-i128:128-f80:128-n8:16:32:64-S128"
target triple = "x86_64-pc-linux-gnu"

; Function Attrs: alwaysinline nounwind willreturn memory(none) uwtable
define internal zeroext i8 @av_clip_uint8_c(i32 noundef %0) #8 {
  %2 = alloca i8, align 1
  %3 = alloca i32, align 4
  store i32 %0, ptr %3, align 4, !tbaa !11
  %4 = load i32, ptr %3, align 4, !tbaa !11
  %5 = and i32 %4, -256
  %6 = icmp ne i32 %5, 0
  br i1 %6, label %7, label %12

7:                                                ; preds = %1
  %8 = load i32, ptr %3, align 4, !tbaa !11
  %9 = xor i32 %8, -1
  %10 = ashr i32 %9, 31
  %11 = trunc i32 %10 to i8
  store i8 %11, ptr %2, align 1
  br label %15

12:                                               ; preds = %1
  %13 = load i32, ptr %3, align 4, !tbaa !11
  %14 = trunc i32 %13 to i8
  store i8 %14, ptr %2, align 1
  br label %15

15:                                               ; preds = %12, %7
  %16 = load i8, ptr %2, align 1
  ret i8 %16
}

; Function Attrs: nounwind uwtable
define internal void @filter_row(ptr noundef %0, i32 noundef %1, float noundef %2, float noundef %3, ptr noundef %4, ptr noundef %5, i32 noundef %6, i32 noundef %7, i32 noundef %8, i32 noundef %9, i32 noundef %10) #0 {
  %12 = alloca ptr, align 8
  %13 = alloca i32, align 4
  %14 = alloca float, align 4
  %15 = alloca float, align 4
  %16 = alloca ptr, align 8
  %17 = alloca ptr, align 8
  %18 = alloca i32, align 4
  %19 = alloca i32, align 4
  %20 = alloca i32, align 4
  %21 = alloca i32, align 4
  %22 = alloca i32, align 4
  %23 = alloca i32, align 4
  %24 = alloca i32, align 4
  %25 = alloca i32, align 4
  store ptr %0, ptr %12, align 8, !tbaa !9
  store i32 %1, ptr %13, align 4, !tbaa !11
  store float %2, ptr %14, align 4, !tbaa !52
  store float %3, ptr %15, align 4, !tbaa !52
  store ptr %4, ptr %16, align 8, !tbaa !53
  store ptr %5, ptr %17, align 8, !tbaa !89
  store i32 %6, ptr %18, align 4, !tbaa !11
  store i32 %7, ptr %19, align 4, !tbaa !11
  store i32 %8, ptr %20, align 4, !tbaa !11
  store i32 %9, ptr %21, align 4, !tbaa !11
  store i32 %10, ptr %22, align 4, !tbaa !11
  call void @llvm.lifetime.start.p0(i64 4, ptr %23) #10
  store i32 0, ptr %23, align 4, !tbaa !11
  br label %26

26:                                               ; preds = %73, %11
  %27 = load i32, ptr %23, align 4, !tbaa !11
  %28 = load i32, ptr %13, align 4, !tbaa !11
  %29 = icmp slt i32 %27, %28
  br i1 %29, label %30, label %76

30:                                               ; preds = %26
  call void @llvm.lifetime.start.p0(i64 4, ptr %24) #10
  call void @llvm.lifetime.start.p0(i64 4, ptr %25) #10
  store i32 0, ptr %25, align 4, !tbaa !11
  store i32 0, ptr %24, align 4, !tbaa !11
  br label %31

31:                                               ; preds = %56, %30
  %32 = load i32, ptr %24, align 4, !tbaa !11
  %33 = load i32, ptr %19, align 4, !tbaa !11
  %34 = mul nsw i32 2, %33
  %35 = add nsw i32 %34, 1
  %36 = icmp slt i32 %32, %35
  br i1 %36, label %37, label %59

37:                                               ; preds = %31
  %38 = load ptr, ptr %17, align 8, !tbaa !89
  %39 = load i32, ptr %24, align 4, !tbaa !11
  %40 = sext i32 %39 to i64
  %41 = getelementptr inbounds ptr, ptr %38, i64 %40
  %42 = load ptr, ptr %41, align 8, !tbaa !9
  %43 = load i32, ptr %23, align 4, !tbaa !11
  %44 = sext i32 %43 to i64
  %45 = getelementptr inbounds i8, ptr %42, i64 %44
  %46 = load i8, ptr %45, align 1, !tbaa !91
  %47 = zext i8 %46 to i32
  %48 = load ptr, ptr %16, align 8, !tbaa !53
  %49 = load i32, ptr %24, align 4, !tbaa !11
  %50 = sext i32 %49 to i64
  %51 = getelementptr inbounds i32, ptr %48, i64 %50
  %52 = load i32, ptr %51, align 4, !tbaa !11
  %53 = mul nsw i32 %47, %52
  %54 = load i32, ptr %25, align 4, !tbaa !11
  %55 = add nsw i32 %54, %53
  store i32 %55, ptr %25, align 4, !tbaa !11
  br label %56

56:                                               ; preds = %37
  %57 = load i32, ptr %24, align 4, !tbaa !11
  %58 = add nsw i32 %57, 1
  store i32 %58, ptr %24, align 4, !tbaa !11
  br label %31, !llvm.loop !92

59:                                               ; preds = %31
  %60 = load i32, ptr %25, align 4, !tbaa !11
  %61 = sitofp i32 %60 to float
  %62 = load float, ptr %14, align 4, !tbaa !52
  %63 = load float, ptr %15, align 4, !tbaa !52
  %64 = call nsz float @llvm.fmuladd.f32(float %61, float %62, float %63)
  %65 = fadd nsz float %64, 5.000000e-01
  %66 = fptosi float %65 to i32
  store i32 %66, ptr %25, align 4, !tbaa !11
  %67 = load i32, ptr %25, align 4, !tbaa !11
  %68 = call zeroext i8 @av_clip_uint8_c(i32 noundef %67) #12
  %69 = load ptr, ptr %12, align 8, !tbaa !9
  %70 = load i32, ptr %23, align 4, !tbaa !11
  %71 = sext i32 %70 to i64
  %72 = getelementptr inbounds i8, ptr %69, i64 %71
  store i8 %68, ptr %72, align 1, !tbaa !91
  call void @llvm.lifetime.end.p0(i64 4, ptr %25) #10
  call void @llvm.lifetime.end.p0(i64 4, ptr %24) #10
  br label %73

73:                                               ; preds = %59
  %74 = load i32, ptr %23, align 4, !tbaa !11
  %75 = add nsw i32 %74, 1
  store i32 %75, ptr %23, align 4, !tbaa !11
  br label %26, !llvm.loop !93

76:                                               ; preds = %26
  call void @llvm.lifetime.end.p0(i64 4, ptr %23) #10
  ret void
}