; Function Attrs: nofree norecurse nosync nounwind memory(read, argmem: readwrite, inaccessiblemem: none) uwtable
define internal void @filter_row(ptr noundef writeonly captures(none) %0, i32 noundef %1, float noundef %2, float noundef %3, ptr noundef readonly captures(none) %4, ptr noundef readonly captures(none) %5, i32 %6, i32 noundef %7, i32 %8, i32 %9, i32 %10) #6 {
  %12 = icmp sgt i32 %1, 0
  br i1 %12, label %.preheader.lr.ph, label %._crit_edge23

.preheader.lr.ph:                                 ; preds = %11
  %.not19 = icmp slt i32 %7, 0
  br i1 %.not19, label %.preheader.lr.ph.split.us, label %.preheader.preheader

.preheader.preheader:                             ; preds = %.preheader.lr.ph
  %13 = shl nuw i32 %7, 1
  %smax = tail call i32 @llvm.smax.i32(i32 %13, i32 0)
  %14 = or disjoint i32 %smax, 1
  %wide.trip.count29 = zext nneg i32 %1 to i64
  %wide.trip.count = zext nneg i32 %14 to i64
  br label %.preheader

.preheader.lr.ph.split.us:                        ; preds = %.preheader.lr.ph
  %15 = tail call nsz float @llvm.fmuladd.f32(float %2, float 0.000000e+00, float %3)
  %16 = fadd nsz float %15, 5.000000e-01
  %17 = fptosi float %16 to i32
  %.not.i.us = icmp ult i32 %17, 256
  %isnotneg.i.us = icmp sgt i32 %17, -1
  %18 = sext i1 %isnotneg.i.us to i8
  %19 = trunc nuw i32 %17 to i8
  %.0.i.us = select i1 %.not.i.us, i8 %19, i8 %18
  %20 = zext nneg i32 %1 to i64
  tail call void @llvm.memset.p0.i64(ptr align 1 %0, i8 %.0.i.us, i64 %20, i1 false), !tbaa !82
  br label %._crit_edge23

.preheader:                                       ; preds = %.preheader.preheader, %._crit_edge
  %indvars.iv26 = phi i64 [ 0, %.preheader.preheader ], [ %indvars.iv.next27, %._crit_edge ]
  br label %21

21:                                               ; preds = %.preheader, %21
  %indvars.iv = phi i64 [ 0, %.preheader ], [ %indvars.iv.next, %21 ]
  %.021 = phi i32 [ 0, %.preheader ], [ %30, %21 ]
  %22 = getelementptr inbounds nuw ptr, ptr %5, i64 %indvars.iv
  %23 = load ptr, ptr %22, align 8, !tbaa !46
  %24 = getelementptr inbounds nuw i8, ptr %23, i64 %indvars.iv26
  %25 = load i8, ptr %24, align 1, !tbaa !82
  %26 = zext i8 %25 to i32
  %27 = getelementptr inbounds nuw i32, ptr %4, i64 %indvars.iv
  %28 = load i32, ptr %27, align 4, !tbaa !39
  %29 = mul nsw i32 %28, %26
  %30 = add nsw i32 %29, %.021
  %indvars.iv.next = add nuw nsw i64 %indvars.iv, 1
  %exitcond.not = icmp eq i64 %indvars.iv.next, %wide.trip.count
  br i1 %exitcond.not, label %._crit_edge, label %21, !llvm.loop !83

._crit_edge:                                      ; preds = %21
  %31 = sitofp i32 %30 to float
  %32 = tail call nsz float @llvm.fmuladd.f32(float %31, float %2, float %3)
  %33 = fadd nsz float %32, 5.000000e-01
  %34 = fptosi float %33 to i32
  %.not.i = icmp ult i32 %34, 256
  %isnotneg.i = icmp sgt i32 %34, -1
  %35 = sext i1 %isnotneg.i to i8
  %36 = trunc nuw i32 %34 to i8
  %.0.i = select i1 %.not.i, i8 %36, i8 %35
  %37 = getelementptr inbounds nuw i8, ptr %0, i64 %indvars.iv26
  store i8 %.0.i, ptr %37, align 1, !tbaa !82
  %indvars.iv.next27 = add nuw nsw i64 %indvars.iv26, 1
  %exitcond30.not = icmp eq i64 %indvars.iv.next27, %wide.trip.count29
  br i1 %exitcond30.not, label %._crit_edge23, label %.preheader, !llvm.loop !84

._crit_edge23:                                    ; preds = %._crit_edge, %.preheader.lr.ph.split.us, %11
  ret void
}